target datalayout = "e-m:e-p270:32:32-p271:32:32-p272:64:64-i64:64-i128:128-f80:128-n8:16:32:64-S128"
target triple = "x86_64-pc-linux-gnu"

%"class.std::__cxx11::basic_string" = type { %"struct.std::__cxx11::basic_string<char>::_Alloc_hider", i64, %union.anon }
%"struct.std::__cxx11::basic_string<char>::_Alloc_hider" = type { ptr }
%union.anon = type { i64, [8 x i8] }
%"class.std::allocator.10" = type { i8 }

@.str.1 = private unnamed_addr constant [111 x i8] c"generated/home/dtcxzyw/WorkSpace/Projects/compilers/llvm-opt-benchmark/bench/faiss/faiss/faiss/clone_index.cpp\00", align 1
@_ZTIN5faiss14FaissExceptionE = external constant ptr
@_ZTIN5faiss14IndexNNDescentE = external constant ptr
@_ZTIN5faiss18IndexNNDescentFlatE = linkonce_odr constant { ptr, ptr, ptr } { ptr getelementptr inbounds (ptr, ptr @_ZTVN10__cxxabiv120__si_class_type_infoE, i64 2), ptr @_ZTSN5faiss18IndexNNDescentFlatE, ptr @_ZTIN5faiss14IndexNNDescentE }, comdat, align 8
@.str.7 = private unnamed_addr constant [52 x i8] c"clone not supported for this type of IndexNNDescent\00", align 1
@__PRETTY_FUNCTION__._ZN5faiss20clone_IndexNNDescentEPKNS_14IndexNNDescentE = private unnamed_addr constant [68 x i8] c"IndexNNDescent *faiss::clone_IndexNNDescent(const IndexNNDescent *)\00", align 1

; Function Attrs: mustprogress uwtable
define linkonce_odr void @_ZN5faiss18IndexNNDescentFlatC2ERKS0_(ptr noundef nonnull align 8 dereferenceable(144) %0, ptr noundef nonnull align 8 dereferenceable(144) %1) unnamed_addr #0 comdat align 2 {
  %3 = alloca ptr, align 8
  %4 = alloca ptr, align 8
  store ptr %0, ptr %3, align 8
  store ptr %1, ptr %4, align 8
  %5 = load ptr, ptr %3, align 8
  %6 = load ptr, ptr %4, align 8
  call void @_ZN5faiss14IndexNNDescentC2ERKS0_(ptr noundef nonnull align 8 dereferenceable(144) %5, ptr noundef nonnull align 8 dereferenceable(144) %6)
  store ptr getelementptr inbounds ({ [24 x ptr] }, ptr @_ZTVN5faiss18IndexNNDescentFlatE, i32 0, i32 0, i32 2), ptr %5, align 8
  ret void
}

; Function Attrs: mustprogress uwtable
define noundef ptr @_ZN5faiss20clone_IndexNNDescentEPKNS_14IndexNNDescentE(ptr noundef %0) #0 personality ptr @__gxx_personality_v0 {
  %2 = alloca ptr, align 8
  %3 = alloca ptr, align 8
  %4 = alloca ptr, align 8
  %5 = alloca ptr, align 8
  %6 = alloca i32, align 4
  %7 = alloca ptr, align 8
  %8 = alloca %"class.std::__cxx11::basic_string", align 8
  %9 = alloca %"class.std::allocator.10", align 1
  %10 = alloca i1, align 1
  store ptr %0, ptr %3, align 8
  %11 = load ptr, ptr %3, align 8
  %12 = icmp eq ptr %11, null
  br i1 %12, label %15, label %13

13:                                               ; preds = %1
  %14 = call ptr @__dynamic_cast(ptr %11, ptr @_ZTIN5faiss14IndexNNDescentE, ptr @_ZTIN5faiss18IndexNNDescentFlatE, i64 0) #5
  br label %16

15:                                               ; preds = %1
  br label %16

16:                                               ; preds = %15, %13
  %17 = phi ptr [ %14, %13 ], [ null, %15 ]
  store ptr %17, ptr %4, align 8
  %18 = load ptr, ptr %4, align 8
  %19 = icmp ne ptr %18, null
  br i1 %19, label %20, label %28

20:                                               ; preds = %16
  %21 = call noalias noundef nonnull ptr @_Znwm(i64 noundef 144) #16
  %22 = load ptr, ptr %4, align 8
  invoke void @_ZN5faiss18IndexNNDescentFlatC2ERKS0_(ptr noundef nonnull align 8 dereferenceable(144) %21, ptr noundef nonnull align 8 dereferenceable(144) %22)
          to label %23 unwind label %24

23:                                               ; preds = %20
  store ptr %21, ptr %2, align 8
  br label %60

24:                                               ; preds = %20
  %25 = landingpad { ptr, i32 }
          cleanup
  %26 = extractvalue { ptr, i32 } %25, 0
  store ptr %26, ptr %5, align 8
  %27 = extractvalue { ptr, i32 } %25, 1
  store i32 %27, ptr %6, align 4
  call void @_ZdlPv(ptr noundef %21) #17
  br label %62

28:                                               ; preds = %16
  %29 = load ptr, ptr %3, align 8
  store ptr %29, ptr %7, align 8
  %30 = load ptr, ptr %7, align 8
  %31 = icmp ne ptr %30, null
  br i1 %31, label %32, label %40

32:                                               ; preds = %28
  %33 = call noalias noundef nonnull ptr @_Znwm(i64 noundef 144) #16
  %34 = load ptr, ptr %7, align 8
  invoke void @_ZN5faiss14IndexNNDescentC2ERKS0_(ptr noundef nonnull align 8 dereferenceable(144) %33, ptr noundef nonnull align 8 dereferenceable(144) %34)
          to label %35 unwind label %36

35:                                               ; preds = %32
  store ptr %33, ptr %2, align 8
  br label %60

36:                                               ; preds = %32
  %37 = landingpad { ptr, i32 }
          cleanup
  %38 = extractvalue { ptr, i32 } %37, 0
  store ptr %38, ptr %5, align 8
  %39 = extractvalue { ptr, i32 } %37, 1
  store i32 %39, ptr %6, align 4
  call void @_ZdlPv(ptr noundef %33) #17
  br label %62

40:                                               ; preds = %28
  br label %41

41:                                               ; preds = %40
  store i1 true, ptr %10, align 1
  %42 = call ptr @__cxa_allocate_exception(i64 40) #5
  call void @_ZNSaIcEC1Ev(ptr noundef nonnull align 1 dereferenceable(1) %9) #5
  invoke void @_ZNSt7__cxx1112basic_stringIcSt11char_traitsIcESaIcEEC2IS3_EEPKcRKS3_(ptr noundef nonnull align 8 dereferenceable(32) %8, ptr noundef @.str.7, ptr noundef nonnull align 1 dereferenceable(1) %9)
          to label %43 unwind label %45

43:                                               ; preds = %41
  invoke void @_ZN5faiss14FaissExceptionC1ERKNSt7__cxx1112basic_stringIcSt11char_traitsIcESaIcEEEPKcSA_i(ptr noundef nonnull align 8 dereferenceable(40) %42, ptr noundef nonnull align 8 dereferenceable(32) %8, ptr noundef @__PRETTY_FUNCTION__._ZN5faiss20clone_IndexNNDescentEPKNS_14IndexNNDescentE, ptr noundef @.str.1, i32 noundef 137)
          to label %44 unwind label %49

44:                                               ; preds = %43
  store i1 false, ptr %10, align 1
  invoke void @__cxa_throw(ptr %42, ptr @_ZTIN5faiss14FaissExceptionE, ptr @_ZN5faiss14FaissExceptionD2Ev) #18
          to label %67 unwind label %49

45:                                               ; preds = %41
  %46 = landingpad { ptr, i32 }
          cleanup
  %47 = extractvalue { ptr, i32 } %46, 0
  store ptr %47, ptr %5, align 8
  %48 = extractvalue { ptr, i32 } %46, 1
  store i32 %48, ptr %6, align 4
  br label %53

49:                                               ; preds = %44, %43
  %50 = landingpad { ptr, i32 }
          cleanup
  %51 = extractvalue { ptr, i32 } %50, 0
  store ptr %51, ptr %5, align 8
  %52 = extractvalue { ptr, i32 } %50, 1
  store i32 %52, ptr %6, align 4
  call void @_ZNSt7__cxx1112basic_stringIcSt11char_traitsIcESaIcEED1Ev(ptr noundef nonnull align 8 dereferenceable(32) %8) #5
  br label %53

53:                                               ; preds = %49, %45
  call void @_ZNSaIcED1Ev(ptr noundef nonnull align 1 dereferenceable(1) %9) #5
  %54 = load i1, ptr %10, align 1
  br i1 %54, label %55, label %56

55:                                               ; preds = %53
  call void @__cxa_free_exception(ptr %42) #5
  br label %56

56:                                               ; preds = %55, %53
  br label %62

57:                                               ; No predecessors!
  br label %58

58:                                               ; preds = %57
  br label %59

59:                                               ; preds = %58
  call void @llvm.trap()
  unreachable

60:                                               ; preds = %35, %23
  %61 = load ptr, ptr %2, align 8
  ret ptr %61

62:                                               ; preds = %56, %36, %24
  %63 = load ptr, ptr %5, align 8
  %64 = load i32, ptr %6, align 4
  %65 = insertvalue { ptr, i32 } poison, ptr %63, 0
  %66 = insertvalue { ptr, i32 } %65, i32 %64, 1
  resume { ptr, i32 } %66

67:                                               ; preds = %44
  unreachable
}