; Function Attrs: mustprogress uwtable
define noundef nonnull ptr @_ZN5faiss20clone_IndexNNDescentEPKNS_14IndexNNDescentE(ptr noundef %0) local_unnamed_addr #0 personality ptr @__gxx_personality_v0 {
  %2 = alloca %"class.std::__cxx11::basic_string", align 8
  %3 = alloca %"class.std::allocator.10", align 1
  %4 = icmp eq ptr %0, null
  br i1 %4, label %14, label %5

5:                                                ; preds = %1
  %6 = tail call ptr @__dynamic_cast(ptr nonnull %0, ptr nonnull @_ZTIN5faiss14IndexNNDescentE, ptr nonnull @_ZTIN5faiss18IndexNNDescentFlatE, i64 0) #20
  %.not = icmp eq ptr %6, null
  %7 = tail call noalias noundef nonnull dereferenceable(144) ptr @_Znwm(i64 noundef 144) #21
  br i1 %.not, label %11, label %8

8:                                                ; preds = %5
  invoke void @_ZN5faiss14IndexNNDescentC2ERKS0_(ptr noundef nonnull align 8 dereferenceable(144) %7, ptr noundef nonnull align 8 dereferenceable(144) %6)
          to label %_ZN5faiss18IndexNNDescentFlatC2ERKS0_.exit unwind label %9

_ZN5faiss18IndexNNDescentFlatC2ERKS0_.exit:       ; preds = %8
  store ptr getelementptr inbounds ({ [24 x ptr] }, ptr @_ZTVN5faiss18IndexNNDescentFlatE, i64 0, i32 0, i64 2), ptr %7, align 8
  br label %22

9:                                                ; preds = %8
  %10 = landingpad { ptr, i32 }
          cleanup
  tail call void @_ZdlPv(ptr noundef nonnull %7) #23
  br label %23

11:                                               ; preds = %5
  invoke void @_ZN5faiss14IndexNNDescentC2ERKS0_(ptr noundef nonnull align 8 dereferenceable(144) %7, ptr noundef nonnull align 8 dereferenceable(144) %0)
          to label %22 unwind label %12

12:                                               ; preds = %11
  %13 = landingpad { ptr, i32 }
          cleanup
  tail call void @_ZdlPv(ptr noundef nonnull %7) #23
  br label %23

14:                                               ; preds = %1
  %15 = tail call ptr @__cxa_allocate_exception(i64 40) #20
  call void @_ZNSaIcEC1Ev(ptr noundef nonnull align 1 dereferenceable(1) %3) #20
  invoke void @_ZNSt7__cxx1112basic_stringIcSt11char_traitsIcESaIcEEC2IS3_EEPKcRKS3_(ptr noundef nonnull align 8 dereferenceable(32) %2, ptr noundef nonnull @.str.7, ptr noundef nonnull align 1 dereferenceable(1) %3)
          to label %16 unwind label %.thread23

16:                                               ; preds = %14
  invoke void @_ZN5faiss14FaissExceptionC1ERKNSt7__cxx1112basic_stringIcSt11char_traitsIcESaIcEEEPKcSA_i(ptr noundef nonnull align 8 dereferenceable(40) %15, ptr noundef nonnull align 8 dereferenceable(32) %2, ptr noundef nonnull @__PRETTY_FUNCTION__._ZN5faiss20clone_IndexNNDescentEPKNS_14IndexNNDescentE, ptr noundef nonnull @.str.1, i32 noundef 137)
          to label %17 unwind label %19

17:                                               ; preds = %16
  invoke void @__cxa_throw(ptr nonnull %15, ptr nonnull @_ZTIN5faiss14FaissExceptionE, ptr nonnull @_ZN5faiss14FaissExceptionD2Ev) #22
          to label %24 unwind label %19

.thread23:                                        ; preds = %14
  %18 = landingpad { ptr, i32 }
          cleanup
  call void @_ZNSaIcED1Ev(ptr noundef nonnull align 1 dereferenceable(1) %3) #20
  br label %21

19:                                               ; preds = %16, %17
  %.0 = phi i1 [ false, %17 ], [ true, %16 ]
  %20 = landingpad { ptr, i32 }
          cleanup
  call void @_ZNSt7__cxx1112basic_stringIcSt11char_traitsIcESaIcEED1Ev(ptr noundef nonnull align 8 dereferenceable(32) %2) #20
  call void @_ZNSaIcED1Ev(ptr noundef nonnull align 1 dereferenceable(1) %3) #20
  br i1 %.0, label %21, label %23

21:                                               ; preds = %.thread23, %19
  %.pn26 = phi { ptr, i32 } [ %18, %.thread23 ], [ %20, %19 ]
  call void @__cxa_free_exception(ptr %15) #20
  br label %23

22:                                               ; preds = %_ZN5faiss18IndexNNDescentFlatC2ERKS0_.exit, %11
  ret ptr %7

23:                                               ; preds = %19, %21, %12, %9
  %.pn19 = phi { ptr, i32 } [ %10, %9 ], [ %13, %12 ], [ %.pn26, %21 ], [ %20, %19 ]
  resume { ptr, i32 } %.pn19

24:                                               ; preds = %17
  unreachable
}